(lp0
S'poi'
p1
aS'total_payments'
p2
acnumpy.core.multiarray
scalar
p3
(cnumpy
dtype
p4
(S'S5'
p5
I0
I1
tp6
Rp7
(I3
S'|'
p8
NNNI5
I1
I0
tp9
bS'bonus'
p10
tp11
Rp12
ag3
(g4
(S'S17'
p13
I0
I1
tp14
Rp15
(I3
S'|'
p16
NNNI17
I1
I0
tp17
bS'total_stock_value'
p18
tp19
Rp20
aS'expenses'
p21
ag3
(g4
(S'S23'
p22
I0
I1
tp23
Rp24
(I3
S'|'
p25
NNNI23
I1
I0
tp26
bS'exercised_stock_options'
p27
tp28
Rp29
aS'ratio_to_poi'
p30
aS'other'
p31
aS'shared_receipt_with_poi'
p32
aS'restricted_stock'
p33
a.