(lp0
S'poi'
p1
aS'total_payments'
p2
acnumpy.core.multiarray
scalar
p3
(cnumpy
dtype
p4
(S'S13'
p5
I0
I1
tp6
Rp7
(I3
S'|'
p8
NNNI13
I1
I0
tp9
bS'loan_advances'
p10
tp11
Rp12
ag3
(g4
(S'S5'
p13
I0
I1
tp14
Rp15
(I3
S'|'
p16
NNNI5
I1
I0
tp17
bS'bonus'
p18
tp19
Rp20
ag3
(g4
(S'S17'
p21
I0
I1
tp22
Rp23
(I3
S'|'
p24
NNNI17
I1
I0
tp25
bS'total_stock_value'
p26
tp27
Rp28
aS'shared_receipt_with_poi'
p29
aS'exercised_stock_options'
p30
aS'ratio_to_poi'
p31
aS'other'
p32
ag3
(g4
(S'S15'
p33
I0
I1
tp34
Rp35
(I3
S'|'
p36
NNNI15
I1
I0
tp37
bS'deferred_income'
p38
tp39
Rp40
aS'expenses'
p41
aS'restricted_stock'
p42
ag3
(g4
(S'S19'
p43
I0
I1
tp44
Rp45
(I3
S'|'
p46
NNNI19
I1
I0
tp47
bS'long_term_incentive'
p48
tp49
Rp50
a.